; Function Attrs: mustprogress nofree norecurse nounwind memory(readwrite, inaccessiblemem: none) uwtable
define void @_ZN7rocksdb19ThreadStatusUpdater30ClearThreadOperationPropertiesEv(ptr noundef nonnull readnone align 8 captures(none) dereferenceable(216) %0) local_unnamed_addr #7 align 2 {
  %2 = tail call align 8 ptr @llvm.threadlocal.address.p0(ptr align 8 @_ZN7rocksdb19ThreadStatusUpdater19thread_status_data_E)
  %3 = load ptr, ptr %2, align 8, !tbaa !14
  %4 = icmp eq ptr %3, null
  br i1 %4, label %_ZN7rocksdb19ThreadStatusUpdater20GetLocalThreadStatusEv.exit.thread, label %5

5:                                                ; preds = %1
  %6 = load atomic i8, ptr %3 monotonic, align 1
  %7 = trunc i8 %6 to i1
  br i1 %7, label %_ZN7rocksdb19ThreadStatusUpdater20GetLocalThreadStatusEv.exit.preheader, label %_ZN7rocksdb19ThreadStatusUpdater20GetLocalThreadStatusEv.exit.thread

_ZN7rocksdb19ThreadStatusUpdater20GetLocalThreadStatusEv.exit.preheader: ; preds = %5
  %8 = getelementptr inbounds nuw i8, ptr %3, i64 56
  br label %_ZN7rocksdb19ThreadStatusUpdater20GetLocalThreadStatusEv.exit

_ZN7rocksdb19ThreadStatusUpdater20GetLocalThreadStatusEv.exit: ; preds = %_ZN7rocksdb19ThreadStatusUpdater20GetLocalThreadStatusEv.exit.preheader, %_ZN7rocksdb19ThreadStatusUpdater20GetLocalThreadStatusEv.exit
  %indvars.iv = phi i64 [ 0, %_ZN7rocksdb19ThreadStatusUpdater20GetLocalThreadStatusEv.exit.preheader ], [ %indvars.iv.next, %_ZN7rocksdb19ThreadStatusUpdater20GetLocalThreadStatusEv.exit ]
  %9 = getelementptr inbounds nuw [6 x %"struct.std::atomic.0"], ptr %8, i64 0, i64 %indvars.iv
  store atomic i64 0, ptr %9 monotonic, align 8
  %indvars.iv.next = add nuw nsw i64 %indvars.iv, 1
  %exitcond.not = icmp eq i64 %indvars.iv.next, 6
  br i1 %exitcond.not, label %_ZN7rocksdb19ThreadStatusUpdater20GetLocalThreadStatusEv.exit.thread, label %_ZN7rocksdb19ThreadStatusUpdater20GetLocalThreadStatusEv.exit, !llvm.loop !19

_ZN7rocksdb19ThreadStatusUpdater20GetLocalThreadStatusEv.exit.thread: ; preds = %_ZN7rocksdb19ThreadStatusUpdater20GetLocalThreadStatusEv.exit, %5, %1
  ret void
}